; Function Attrs: nounwind uwtable
define hidden void @je_malloc_mutex_lock_slow(ptr noundef %0) local_unnamed_addr #0 {
  %2 = alloca %struct.nstime_t, align 8
  %3 = alloca %struct.nstime_t, align 8
  %4 = alloca %struct.nstime_t, align 8
  call void @llvm.lifetime.start.p0(i64 8, ptr nonnull %2) #7
  %5 = load i32, ptr @je_ncpus, align 4, !tbaa !4
  %6 = icmp eq i32 %5, 1
  br i1 %6, label %.loopexit, label %.preheader

.preheader:                                       ; preds = %1
  %7 = getelementptr inbounds nuw i8, ptr %0, i64 64
  %8 = getelementptr inbounds nuw i8, ptr %0, i64 72
  br label %9

9:                                                ; preds = %.preheader, %malloc_mutex_trylock_final.exit.thread
  %indvars.iv = phi i64 [ 0, %.preheader ], [ %indvars.iv.next, %malloc_mutex_trylock_final.exit.thread ]
  tail call void asm sideeffect "pause", "~{dirflag},~{fpsr},~{flags}"() #7, !srcloc !8
  %10 = load atomic i8, ptr %7 monotonic, align 1
  %11 = trunc i8 %10 to i1
  br i1 %11, label %malloc_mutex_trylock_final.exit.thread, label %12

12:                                               ; preds = %9
  %13 = tail call i32 @pthread_mutex_trylock(ptr noundef nonnull %8) #7
  %.not = icmp eq i32 %13, 0
  br i1 %.not, label %14, label %malloc_mutex_trylock_final.exit.thread

14:                                               ; preds = %12
  store atomic i8 1, ptr %7 monotonic, align 1
  %15 = getelementptr inbounds nuw i8, ptr %0, i64 24
  %16 = load i64, ptr %15, align 8, !tbaa !9
  %17 = add i64 %16, 1
  store i64 %17, ptr %15, align 8, !tbaa !9
  br label %50

malloc_mutex_trylock_final.exit.thread:           ; preds = %12, %9
  %indvars.iv.next = add nuw nsw i64 %indvars.iv, 1
  %18 = load i64, ptr @je_opt_mutex_max_spin, align 8, !tbaa !16
  %19 = icmp sgt i64 %18, %indvars.iv
  %20 = icmp eq i64 %18, -1
  %21 = or i1 %19, %20
  br i1 %21, label %9, label %.loopexit, !llvm.loop !17

.loopexit:                                        ; preds = %malloc_mutex_trylock_final.exit.thread, %1
  call void @je_nstime_init_update(ptr noundef nonnull %2) #7
  call void @je_nstime_copy(ptr noundef nonnull %3, ptr noundef nonnull %2) #7
  %22 = getelementptr inbounds nuw i8, ptr %0, i64 36
  %23 = atomicrmw add ptr %22, i32 1 monotonic, align 4
  %24 = add i32 %23, 1
  %25 = getelementptr inbounds nuw i8, ptr %0, i64 72
  %26 = call i32 @pthread_mutex_trylock(ptr noundef nonnull %25) #7
  %.not20 = icmp eq i32 %26, 0
  br i1 %.not20, label %27, label %33

27:                                               ; preds = %.loopexit
  %28 = getelementptr inbounds nuw i8, ptr %0, i64 64
  store atomic i8 1, ptr %28 monotonic, align 1
  %29 = atomicrmw sub ptr %22, i32 1 monotonic, align 4
  %30 = getelementptr inbounds nuw i8, ptr %0, i64 24
  %31 = load i64, ptr %30, align 8, !tbaa !9
  %32 = add i64 %31, 1
  store i64 %32, ptr %30, align 8, !tbaa !9
  br label %50

33:                                               ; preds = %.loopexit
  %34 = call i32 @pthread_mutex_lock(ptr noundef nonnull %25) #7
  %35 = getelementptr inbounds nuw i8, ptr %0, i64 64
  store atomic i8 1, ptr %35 monotonic, align 1
  %36 = atomicrmw sub ptr %22, i32 1 monotonic, align 4
  %37 = load ptr, ptr @je_nstime_update, align 8, !tbaa !19
  call void %37(ptr noundef nonnull %3) #7
  call void @je_nstime_copy(ptr noundef nonnull %4, ptr noundef nonnull %3) #7
  call void @je_nstime_subtract(ptr noundef nonnull %4, ptr noundef nonnull %2) #7
  %38 = getelementptr inbounds nuw i8, ptr %0, i64 16
  %39 = load i64, ptr %38, align 8, !tbaa !20
  %40 = add i64 %39, 1
  store i64 %40, ptr %38, align 8, !tbaa !20
  call void @je_nstime_add(ptr noundef nonnull %0, ptr noundef nonnull %4) #7
  %41 = getelementptr inbounds nuw i8, ptr %0, i64 8
  %42 = call i32 @je_nstime_compare(ptr noundef nonnull %41, ptr noundef nonnull %4) #7
  %43 = icmp slt i32 %42, 0
  br i1 %43, label %44, label %45

44:                                               ; preds = %33
  call void @je_nstime_copy(ptr noundef nonnull %41, ptr noundef nonnull %4) #7
  br label %45

45:                                               ; preds = %44, %33
  %46 = getelementptr inbounds nuw i8, ptr %0, i64 32
  %47 = load i32, ptr %46, align 8, !tbaa !21
  %48 = icmp ugt i32 %24, %47
  br i1 %48, label %49, label %50

49:                                               ; preds = %45
  store i32 %24, ptr %46, align 8, !tbaa !21
  br label %50

50:                                               ; preds = %45, %49, %27, %14
  call void @llvm.lifetime.end.p0(i64 8, ptr nonnull %2) #7
  ret void
}